target datalayout = "e-m:e-p270:32:32-p271:32:32-p272:64:64-i64:64-i128:128-f80:128-n8:16:32:64-S128"
target triple = "x86_64-unknown-linux-gnu"

%struct.PlatformBusDevice = type { %struct.SysBusDevice, i32, %struct.MemoryRegion, i32, ptr, ptr }
%struct.SysBusDevice = type { %struct.DeviceState, i32, [32 x %struct.anon], i32, [32 x i32] }
%struct.DeviceState = type { %struct.Object, ptr, ptr, i8, i8, i64, ptr, i32, i8, ptr, %struct.NamedGPIOListHead, %struct.NamedClockListHead, %struct.BusStateHead, i32, i32, i32, %struct.ResettableState, ptr, %struct.MemReentrancyGuard }
%struct.Object = type { ptr, ptr, ptr, i32, ptr }
%struct.NamedGPIOListHead = type { ptr }
%struct.NamedClockListHead = type { ptr }
%struct.BusStateHead = type { ptr }
%struct.ResettableState = type { i32, i8, i8 }
%struct.MemReentrancyGuard = type { i8 }
%struct.anon = type { i64, ptr }
%struct.MemoryRegion = type { %struct.Object, i8, i8, i8, i8, i8, i8, i8, i8, i8, i8, ptr, ptr, ptr, ptr, ptr, ptr, i32, i128, i64, ptr, i64, i8, i8, i8, i8, i8, ptr, i64, i32, %union.anon, %union.anon.0, %union.anon.1, ptr, i32, ptr, ptr, i8 }
%union.anon = type { %struct.QTailQLink }
%struct.QTailQLink = type { ptr, ptr }
%union.anon.0 = type { %struct.QTailQLink }
%union.anon.1 = type { %struct.QTailQLink }

@.str.4 = private unnamed_addr constant [20 x i8] c"platform-bus-device\00", align 1
@.str.5 = private unnamed_addr constant [15 x i8] c"sys-bus-device\00", align 1
@.str.8 = private unnamed_addr constant [13 x i8] c"platform bus\00", align 1
@.str.9 = private unnamed_addr constant [98 x i8] c"/home/dtcxzyw/WorkSpace/Projects/compilers/llvm-opt-benchmark/bench/qemu/qemu/include/hw/sysbus.h\00", align 1
@__func__.SYS_BUS_DEVICE = private unnamed_addr constant [15 x i8] c"SYS_BUS_DEVICE\00", align 1
@.str.10 = private unnamed_addr constant [104 x i8] c"/home/dtcxzyw/WorkSpace/Projects/compilers/llvm-opt-benchmark/bench/qemu/qemu/include/hw/platform-bus.h\00", align 1
@__func__.PLATFORM_BUS_DEVICE = private unnamed_addr constant [20 x i8] c"PLATFORM_BUS_DEVICE\00", align 1

; Function Attrs: nounwind sspstrong uwtable
define internal void @bitmap_zero(ptr noundef %dst, i64 noundef %nbits) #0 {
entry:
  %dst.addr = alloca ptr, align 8
  %nbits.addr = alloca i64, align 8
  %len = alloca i64, align 8
  store ptr %dst, ptr %dst.addr, align 8
  store i64 %nbits, ptr %nbits.addr, align 8
  %0 = load i64, ptr %nbits.addr, align 8
  %cmp = icmp ule i64 %0, 64
  br i1 %cmp, label %if.then, label %if.else

if.then:                                          ; preds = %entry
  %1 = load ptr, ptr %dst.addr, align 8
  store i64 0, ptr %1, align 8
  br label %if.end

if.else:                                          ; preds = %entry
  %2 = load i64, ptr %nbits.addr, align 8
  %add = add i64 %2, 64
  %sub = sub i64 %add, 1
  %div = udiv i64 %sub, 64
  %mul = mul i64 %div, 8
  store i64 %mul, ptr %len, align 8
  %3 = load ptr, ptr %dst.addr, align 8
  %4 = load i64, ptr %len, align 8
  call void @llvm.memset.p0.i64(ptr align 8 %3, i8 0, i64 %4, i1 false)
  br label %if.end

if.end:                                           ; preds = %if.else, %if.then
  ret void
}

; Function Attrs: nounwind sspstrong uwtable
define internal ptr @bitmap_try_new(i64 noundef %nbits) #0 {
entry:
  %nbits.addr = alloca i64, align 8
  %len = alloca i64, align 8
  store i64 %nbits, ptr %nbits.addr, align 8
  %0 = load i64, ptr %nbits.addr, align 8
  %add = add i64 %0, 64
  %sub = sub i64 %add, 1
  %div = udiv i64 %sub, 64
  %mul = mul i64 %div, 8
  store i64 %mul, ptr %len, align 8
  %1 = load i64, ptr %len, align 8
  %call = call noalias ptr @g_try_malloc0(i64 noundef %1) #9
  ret ptr %call
}

; Function Attrs: nounwind sspstrong uwtable
define internal void @plaform_bus_refresh_irqs(ptr noundef %pbus) #0 {
entry:
  %pbus.addr = alloca ptr, align 8
  store ptr %pbus, ptr %pbus.addr, align 8
  %0 = load ptr, ptr %pbus.addr, align 8
  %used_irqs = getelementptr inbounds %struct.PlatformBusDevice, ptr %0, i32 0, i32 5
  %1 = load ptr, ptr %used_irqs, align 16
  %2 = load ptr, ptr %pbus.addr, align 8
  %num_irqs = getelementptr inbounds %struct.PlatformBusDevice, ptr %2, i32 0, i32 3
  %3 = load i32, ptr %num_irqs, align 16
  %conv = zext i32 %3 to i64
  call void @bitmap_zero(ptr noundef %1, i64 noundef %conv)
  %4 = load ptr, ptr %pbus.addr, align 8
  call void @foreach_dynamic_sysbus_device(ptr noundef @platform_bus_count_irqs, ptr noundef %4)
  ret void
}

; Function Attrs: nounwind sspstrong uwtable
define internal ptr @bitmap_new(i64 noundef %nbits) #0 {
entry:
  %nbits.addr = alloca i64, align 8
  %ptr = alloca ptr, align 8
  store i64 %nbits, ptr %nbits.addr, align 8
  %0 = load i64, ptr %nbits.addr, align 8
  %call = call ptr @bitmap_try_new(i64 noundef %0)
  store ptr %call, ptr %ptr, align 8
  %1 = load ptr, ptr %ptr, align 8
  %cmp = icmp eq ptr %1, null
  br i1 %cmp, label %if.then, label %if.end

if.then:                                          ; preds = %entry
  call void @abort() #7
  unreachable

if.end:                                           ; preds = %entry
  %2 = load ptr, ptr %ptr, align 8
  ret ptr %2
}

; Function Attrs: nounwind sspstrong uwtable
define internal ptr @PLATFORM_BUS_DEVICE(ptr noundef %obj) #0 {
entry:
  %obj.addr = alloca ptr, align 8
  store ptr %obj, ptr %obj.addr, align 8
  %0 = load ptr, ptr %obj.addr, align 8
  %call = call ptr @object_dynamic_cast_assert(ptr noundef %0, ptr noundef @.str.4, ptr noundef @.str.10, i32 noundef 30, ptr noundef @__func__.PLATFORM_BUS_DEVICE)
  ret ptr %call
}

; Function Attrs: nounwind sspstrong uwtable
define internal ptr @SYS_BUS_DEVICE(ptr noundef %obj) #0 {
entry:
  %obj.addr = alloca ptr, align 8
  store ptr %obj, ptr %obj.addr, align 8
  %0 = load ptr, ptr %obj.addr, align 8
  %call = call ptr @object_dynamic_cast_assert(ptr noundef %0, ptr noundef @.str.5, ptr noundef @.str.9, i32 noundef 20, ptr noundef @__func__.SYS_BUS_DEVICE)
  ret ptr %call
}

; Function Attrs: nounwind sspstrong uwtable
define internal void @platform_bus_realize(ptr noundef %dev, ptr noundef %errp) #0 {
entry:
  %dev.addr = alloca ptr, align 8
  %errp.addr = alloca ptr, align 8
  %pbus = alloca ptr, align 8
  %d = alloca ptr, align 8
  %i = alloca i32, align 4
  store ptr %dev, ptr %dev.addr, align 8
  store ptr %errp, ptr %errp.addr, align 8
  %0 = load ptr, ptr %dev.addr, align 8
  %call = call ptr @SYS_BUS_DEVICE(ptr noundef %0)
  store ptr %call, ptr %d, align 8
  %1 = load ptr, ptr %dev.addr, align 8
  %call1 = call ptr @PLATFORM_BUS_DEVICE(ptr noundef %1)
  store ptr %call1, ptr %pbus, align 8
  %2 = load ptr, ptr %pbus, align 8
  %mmio = getelementptr inbounds %struct.PlatformBusDevice, ptr %2, i32 0, i32 2
  %3 = load ptr, ptr %dev.addr, align 8
  %4 = load ptr, ptr %pbus, align 8
  %mmio_size = getelementptr inbounds %struct.PlatformBusDevice, ptr %4, i32 0, i32 1
  %5 = load i32, ptr %mmio_size, align 16
  %conv = zext i32 %5 to i64
  call void @memory_region_init(ptr noundef %mmio, ptr noundef %3, ptr noundef @.str.8, i64 noundef %conv)
  %6 = load ptr, ptr %d, align 8
  %7 = load ptr, ptr %pbus, align 8
  %mmio2 = getelementptr inbounds %struct.PlatformBusDevice, ptr %7, i32 0, i32 2
  call void @sysbus_init_mmio(ptr noundef %6, ptr noundef %mmio2)
  %8 = load ptr, ptr %pbus, align 8
  %num_irqs = getelementptr inbounds %struct.PlatformBusDevice, ptr %8, i32 0, i32 3
  %9 = load i32, ptr %num_irqs, align 16
  %conv3 = zext i32 %9 to i64
  %call4 = call ptr @bitmap_new(i64 noundef %conv3)
  %10 = load ptr, ptr %pbus, align 8
  %used_irqs = getelementptr inbounds %struct.PlatformBusDevice, ptr %10, i32 0, i32 5
  store ptr %call4, ptr %used_irqs, align 16
  %11 = load ptr, ptr %pbus, align 8
  %num_irqs5 = getelementptr inbounds %struct.PlatformBusDevice, ptr %11, i32 0, i32 3
  %12 = load i32, ptr %num_irqs5, align 16
  %conv6 = zext i32 %12 to i64
  %call7 = call noalias ptr @g_malloc0_n(i64 noundef %conv6, i64 noundef 8) #8
  %13 = load ptr, ptr %pbus, align 8
  %irqs = getelementptr inbounds %struct.PlatformBusDevice, ptr %13, i32 0, i32 4
  store ptr %call7, ptr %irqs, align 8
  store i32 0, ptr %i, align 4
  br label %for.cond

for.cond:                                         ; preds = %for.inc, %entry
  %14 = load i32, ptr %i, align 4
  %15 = load ptr, ptr %pbus, align 8
  %num_irqs8 = getelementptr inbounds %struct.PlatformBusDevice, ptr %15, i32 0, i32 3
  %16 = load i32, ptr %num_irqs8, align 16
  %cmp = icmp ult i32 %14, %16
  br i1 %cmp, label %for.body, label %for.end

for.body:                                         ; preds = %for.cond
  %17 = load ptr, ptr %d, align 8
  %18 = load ptr, ptr %pbus, align 8
  %irqs10 = getelementptr inbounds %struct.PlatformBusDevice, ptr %18, i32 0, i32 4
  %19 = load ptr, ptr %irqs10, align 8
  %20 = load i32, ptr %i, align 4
  %idxprom = sext i32 %20 to i64
  %arrayidx = getelementptr ptr, ptr %19, i64 %idxprom
  call void @sysbus_init_irq(ptr noundef %17, ptr noundef %arrayidx)
  br label %for.inc

for.inc:                                          ; preds = %for.body
  %21 = load i32, ptr %i, align 4
  %inc = add i32 %21, 1
  store i32 %inc, ptr %i, align 4
  br label %for.cond, !llvm.loop !10

for.end:                                          ; preds = %for.cond
  %22 = load ptr, ptr %pbus, align 8
  call void @plaform_bus_refresh_irqs(ptr noundef %22)
  ret void
}