; Function Attrs: nounwind sspstrong uwtable
define internal void @platform_bus_realize(ptr noundef %dev, ptr readnone captures(none) %errp) #0 {
entry:
  %call.i = tail call ptr @object_dynamic_cast_assert(ptr noundef %dev, ptr noundef nonnull @.str.5, ptr noundef nonnull @.str.9, i32 noundef 20, ptr noundef nonnull @__func__.SYS_BUS_DEVICE) #9
  %call.i15 = tail call ptr @object_dynamic_cast_assert(ptr noundef %dev, ptr noundef nonnull @.str.4, ptr noundef nonnull @.str.10, i32 noundef 30, ptr noundef nonnull @__func__.PLATFORM_BUS_DEVICE) #9
  %mmio = getelementptr inbounds nuw i8, ptr %call.i15, i64 832
  %mmio_size = getelementptr inbounds nuw i8, ptr %call.i15, i64 816
  %0 = load i32, ptr %mmio_size, align 16
  %conv = zext i32 %0 to i64
  tail call void @memory_region_init(ptr noundef nonnull %mmio, ptr noundef %dev, ptr noundef nonnull @.str.8, i64 noundef %conv) #9
  tail call void @sysbus_init_mmio(ptr noundef %call.i, ptr noundef nonnull %mmio) #9
  %num_irqs = getelementptr inbounds nuw i8, ptr %call.i15, i64 1104
  %1 = load i32, ptr %num_irqs, align 16
  %conv3 = zext i32 %1 to i64
  %sub.i.i = add nuw nsw i64 %conv3, 63
  %2 = lshr i64 %sub.i.i, 3
  %mul.i.i = and i64 %2, 1073741816
  %call.i.i = tail call noalias ptr @g_try_malloc0(i64 noundef %mul.i.i) #11
  %cmp.i = icmp eq ptr %call.i.i, null
  br i1 %cmp.i, label %if.then.i, label %bitmap_new.exit

if.then.i:                                        ; preds = %entry
  tail call void @abort() #12
  unreachable

bitmap_new.exit:                                  ; preds = %entry
  %used_irqs = getelementptr inbounds nuw i8, ptr %call.i15, i64 1120
  store ptr %call.i.i, ptr %used_irqs, align 16
  %3 = load i32, ptr %num_irqs, align 16
  %conv6 = zext i32 %3 to i64
  %call7 = tail call noalias ptr @g_malloc0_n(i64 noundef %conv6, i64 noundef 8) #13
  %irqs = getelementptr inbounds nuw i8, ptr %call.i15, i64 1112
  store ptr %call7, ptr %irqs, align 8
  %4 = load i32, ptr %num_irqs, align 16
  %cmp18.not = icmp eq i32 %4, 0
  br i1 %cmp18.not, label %for.end.thread, label %for.body

for.end.thread:                                   ; preds = %bitmap_new.exit
  %5 = load ptr, ptr %used_irqs, align 16
  br label %if.then.i.i

for.body:                                         ; preds = %bitmap_new.exit, %for.body
  %i.019 = phi i32 [ %inc, %for.body ], [ 0, %bitmap_new.exit ]
  %6 = load ptr, ptr %irqs, align 8
  %idxprom = sext i32 %i.019 to i64
  %arrayidx = getelementptr ptr, ptr %6, i64 %idxprom
  tail call void @sysbus_init_irq(ptr noundef %call.i, ptr noundef %arrayidx) #9
  %inc = add nuw i32 %i.019, 1
  %7 = load i32, ptr %num_irqs, align 16
  %cmp = icmp ult i32 %inc, %7
  br i1 %cmp, label %for.body, label %for.end, !llvm.loop !10

for.end:                                          ; preds = %for.body
  %8 = load ptr, ptr %used_irqs, align 16
  %cmp.i.i = icmp ult i32 %7, 65
  br i1 %cmp.i.i, label %if.then.i.i, label %if.else.i.i

if.then.i.i:                                      ; preds = %for.end.thread, %for.end
  %9 = phi ptr [ %5, %for.end.thread ], [ %8, %for.end ]
  store i64 0, ptr %9, align 8
  br label %plaform_bus_refresh_irqs.exit

if.else.i.i:                                      ; preds = %for.end
  %conv.i = zext i32 %7 to i64
  %sub.i.i16 = add nuw nsw i64 %conv.i, 63
  %10 = lshr i64 %sub.i.i16, 3
  %mul.i.i17 = and i64 %10, 1073741816
  tail call void @llvm.memset.p0.i64(ptr align 8 %8, i8 0, i64 %mul.i.i17, i1 false)
  br label %plaform_bus_refresh_irqs.exit

plaform_bus_refresh_irqs.exit:                    ; preds = %if.then.i.i, %if.else.i.i
  tail call void @foreach_dynamic_sysbus_device(ptr noundef nonnull @platform_bus_count_irqs, ptr noundef nonnull %call.i15) #9
  ret void
}